target datalayout = "e-m:e-p270:32:32-p271:32:32-p272:64:64-i64:64-i128:128-f80:128-n8:16:32:64-S128"
target triple = "x86_64-pc-linux-gnu"

%struct.obdii_packet_info = type { ptr, i32, i8, i8, i8, i32, i8, i8, i8, i8, i8 }
%struct._packet_info = type { ptr, ptr, i32, i32, %struct.nstime_t, %struct.nstime_t, %struct.nstime_t, i8, ptr, ptr, ptr, ptr, %struct._address, %struct._address, %struct._address, %struct._address, %struct._address, %struct._address, i32, ptr, i8, [3 x i8], %struct.anon, i32, i32, i32, i32, ptr, i8, ptr, ptr, i16, i16, i32, i32, i16, i32, i32, ptr, ptr, ptr, i8, i8, i16, i16, i16, i32, i16, i16, ptr, ptr, ptr, ptr, ptr, i32, i32 }
%struct.nstime_t = type { i64, i32 }
%struct._address = type { i32, i32, ptr, ptr }
%struct.anon = type { i8, [3 x i8] }

@.str.359 = private unnamed_addr constant [10 x i8] c": %.2f %%\00", align 1

; Function Attrs: null_pointer_is_valid sspstrong uwtable
define internal zeroext i1 @dissect_obdii_common_percent_neg(ptr noundef %0, ptr noundef %1, ptr noundef %2, i32 noundef %3) #0 {
  %5 = alloca i1, align 1
  %6 = alloca ptr, align 8
  %7 = alloca ptr, align 8
  %8 = alloca ptr, align 8
  %9 = alloca i32, align 4
  %10 = alloca double, align 8
  store ptr %0, ptr %6, align 8
  store ptr %1, ptr %7, align 8
  store ptr %2, ptr %8, align 8
  store i32 %3, ptr %9, align 4
  %11 = load ptr, ptr %7, align 8
  %12 = getelementptr inbounds nuw %struct.obdii_packet_info, ptr %11, i32 0, i32 4
  %13 = load i8, ptr %12, align 2
  %14 = zext i8 %13 to i32
  %15 = icmp eq i32 %14, 1
  br i1 %15, label %16, label %43

16:                                               ; preds = %4
  call void @llvm.lifetime.start.p0(i64 8, ptr %10) #8
  %17 = load ptr, ptr %7, align 8
  %18 = getelementptr inbounds nuw %struct.obdii_packet_info, ptr %17, i32 0, i32 6
  %19 = load i8, ptr %18, align 4
  %20 = zext i8 %19 to i32
  %21 = mul i32 100, %20
  %22 = sitofp i32 %21 to double
  %23 = fdiv double %22, 1.280000e+02
  %24 = fsub double %23, 1.000000e+02
  store double %24, ptr %10, align 8
  %25 = load ptr, ptr %7, align 8
  %26 = getelementptr inbounds nuw %struct.obdii_packet_info, ptr %25, i32 0, i32 0
  %27 = load ptr, ptr %26, align 8
  %28 = getelementptr inbounds nuw %struct._packet_info, ptr %27, i32 0, i32 1
  %29 = load ptr, ptr %28, align 8
  %30 = load double, ptr %10, align 8
  call void (ptr, i32, ptr, ...) @col_append_fstr(ptr noundef %29, i32 noundef 25, ptr noundef @.str.359, double noundef %30)
  %31 = load ptr, ptr %8, align 8
  %32 = load i32, ptr %9, align 4
  %33 = load ptr, ptr %6, align 8
  %34 = load ptr, ptr %7, align 8
  %35 = getelementptr inbounds nuw %struct.obdii_packet_info, ptr %34, i32 0, i32 5
  %36 = load i32, ptr %35, align 8
  %37 = load ptr, ptr %7, align 8
  %38 = getelementptr inbounds nuw %struct.obdii_packet_info, ptr %37, i32 0, i32 4
  %39 = load i8, ptr %38, align 2
  %40 = zext i8 %39 to i32
  %41 = load double, ptr %10, align 8
  %42 = call ptr @proto_tree_add_double(ptr noundef %31, i32 noundef %32, ptr noundef %33, i32 noundef %36, i32 noundef %40, double noundef %41)
  store i1 true, ptr %5, align 1
  call void @llvm.lifetime.end.p0(i64 8, ptr %10) #8
  br label %44

43:                                               ; preds = %4
  store i1 false, ptr %5, align 1
  br label %44

44:                                               ; preds = %43, %16
  %45 = load i1, ptr %5, align 1
  ret i1 %45
}