; Function Attrs: null_pointer_is_valid sspstrong uwtable
define internal fastcc noundef zeroext i1 @dissect_obdii_common_percent_neg(ptr noundef %0, ptr noundef readonly captures(none) %1, ptr noundef %2, i32 noundef %3) unnamed_addr #0 {
  %5 = getelementptr inbounds nuw i8, ptr %1, i64 14
  %6 = load i8, ptr %5, align 2
  %7 = icmp eq i8 %6, 1
  br i1 %7, label %8, label %24

8:                                                ; preds = %4
  %9 = getelementptr inbounds nuw i8, ptr %1, i64 20
  %10 = load i8, ptr %9, align 4
  %11 = zext i8 %10 to i32
  %12 = mul nuw nsw i32 %11, 100
  %13 = uitofp nneg i32 %12 to double
  %14 = fmul double %13, 7.812500e-03
  %15 = fadd double %14, -1.000000e+02
  %16 = load ptr, ptr %1, align 8
  %17 = getelementptr inbounds nuw i8, ptr %16, i64 8
  %18 = load ptr, ptr %17, align 8
  tail call void (ptr, i32, ptr, ...) @col_append_fstr(ptr noundef %18, i32 noundef 25, ptr noundef nonnull @.str.359, double noundef %15)
  %19 = getelementptr inbounds nuw i8, ptr %1, i64 16
  %20 = load i32, ptr %19, align 8
  %21 = load i8, ptr %5, align 2
  %22 = zext i8 %21 to i32
  %23 = tail call ptr @proto_tree_add_double(ptr noundef %2, i32 noundef %3, ptr noundef %0, i32 noundef %20, i32 noundef %22, double noundef %15)
  br label %24

24:                                               ; preds = %4, %8
  ret i1 %7
}